; Function Attrs: nounwind uwtable
define ptr @Wlc_ObjName(ptr noundef readonly captures(none) %0, i32 noundef %1) local_unnamed_addr #3 {
  %3 = getelementptr i8, ptr %0, i64 700
  %.val = load i32, ptr %3, align 4
  %4 = icmp slt i32 %.val, 1
  br i1 %4, label %14, label %5

5:                                                ; preds = %2
  %6 = getelementptr i8, ptr %0, i64 704
  %.val8 = load ptr, ptr %6, align 8
  %7 = sext i32 %1 to i64
  %8 = getelementptr inbounds i32, ptr %.val8, i64 %7
  %9 = load i32, ptr %8, align 4
  %.not7 = icmp eq i32 %9, 0
  br i1 %.not7, label %14, label %10

10:                                               ; preds = %5
  %11 = getelementptr inbounds nuw i8, ptr %0, i64 688
  %12 = load ptr, ptr %11, align 8
  %13 = tail call ptr @Abc_NamStr(ptr noundef %12, i32 noundef %9) #25
  br label %16

14:                                               ; preds = %5, %2
  %15 = tail call i32 (ptr, ptr, ...) @sprintf(ptr noundef nonnull dereferenceable(1) @Wlc_ObjName.Buffer, ptr noundef nonnull dereferenceable(1) @.str.2, i32 noundef %1) #25
  br label %16

16:                                               ; preds = %14, %10
  %.0 = phi ptr [ %13, %10 ], [ @Wlc_ObjName.Buffer, %14 ]
  ret ptr %.0
}